target datalayout = "e-m:e-p270:32:32-p271:32:32-p272:64:64-i64:64-i128:128-f80:128-n8:16:32:64-S128"
target triple = "x86_64-pc-linux-gnu"

%struct.RelationData = type { %struct.RelFileLocator, ptr, i32, i32, i8, i8, i8, i8, i8, i32, i32, i32, i32, ptr, ptr, i32, %struct.LockInfoData, ptr, ptr, ptr, ptr, ptr, i8, ptr, ptr, ptr, ptr, ptr, ptr, i32, ptr, i8, ptr, ptr, i32, i8, i32, ptr, i8, ptr, ptr, ptr, ptr, ptr, ptr, ptr, i32, ptr, ptr, ptr, ptr, ptr, ptr, ptr, ptr, ptr, ptr, ptr, ptr, ptr, ptr, ptr, ptr, ptr, ptr, ptr, i32, i8, ptr }
%struct.RelFileLocator = type { i32, i32, i32 }
%struct.LockInfoData = type { %struct.LockRelId }
%struct.LockRelId = type { i32, i32 }

@.str.1 = private unnamed_addr constant [11 x i8] c"relcache.c\00", align 1
@RelationIdCache = internal global ptr null, align 8
@.str.61 = private unnamed_addr constant [43 x i8] c"failed to delete relcache entry for OID %u\00", align 1
@__func__.RelationClearRelation = private unnamed_addr constant [22 x i8] c"RelationClearRelation\00", align 1

; Function Attrs: inlinehint nounwind uwtable
define internal void @RelationCloseSmgr(ptr noundef %0) #3 {
  %2 = alloca ptr, align 8
  store ptr %0, ptr %2, align 8
  %3 = load ptr, ptr %2, align 8
  %4 = getelementptr inbounds nuw %struct.RelationData, ptr %3, i32 0, i32 1
  %5 = load ptr, ptr %4, align 8
  %6 = icmp ne ptr %5, null
  br i1 %6, label %7, label %16

7:                                                ; preds = %1
  %8 = load ptr, ptr %2, align 8
  %9 = getelementptr inbounds nuw %struct.RelationData, ptr %8, i32 0, i32 1
  %10 = load ptr, ptr %9, align 8
  call void @smgrunpin(ptr noundef %10)
  %11 = load ptr, ptr %2, align 8
  %12 = getelementptr inbounds nuw %struct.RelationData, ptr %11, i32 0, i32 1
  %13 = load ptr, ptr %12, align 8
  call void @smgrclose(ptr noundef %13)
  %14 = load ptr, ptr %2, align 8
  %15 = getelementptr inbounds nuw %struct.RelationData, ptr %14, i32 0, i32 1
  store ptr null, ptr %15, align 8
  br label %16

16:                                               ; preds = %7, %1
  ret void
}

; Function Attrs: nounwind uwtable
define internal void @RelationInvalidateRelation(ptr noundef %0) #0 {
  %2 = alloca ptr, align 8
  store ptr %0, ptr %2, align 8
  %3 = load ptr, ptr %2, align 8
  call void @RelationCloseSmgr(ptr noundef %3)
  %4 = load ptr, ptr %2, align 8
  %5 = getelementptr inbounds nuw %struct.RelationData, ptr %4, i32 0, i32 64
  %6 = load ptr, ptr %5, align 8
  %7 = icmp ne ptr %6, null
  br i1 %7, label %8, label %12

8:                                                ; preds = %1
  %9 = load ptr, ptr %2, align 8
  %10 = getelementptr inbounds nuw %struct.RelationData, ptr %9, i32 0, i32 64
  %11 = load ptr, ptr %10, align 8
  call void @pfree(ptr noundef %11)
  br label %12

12:                                               ; preds = %8, %1
  %13 = load ptr, ptr %2, align 8
  %14 = getelementptr inbounds nuw %struct.RelationData, ptr %13, i32 0, i32 64
  store ptr null, ptr %14, align 8
  %15 = load ptr, ptr %2, align 8
  %16 = getelementptr inbounds nuw %struct.RelationData, ptr %15, i32 0, i32 6
  store i8 0, ptr %16, align 2
  ret void
}

; Function Attrs: nounwind uwtable
define internal void @RelationClearRelation(ptr noundef %0) #0 {
  %2 = alloca ptr, align 8
  %3 = alloca ptr, align 8
  store ptr %0, ptr %2, align 8
  %4 = load ptr, ptr %2, align 8
  call void @RelationInvalidateRelation(ptr noundef %4)
  br label %5

5:                                                ; preds = %1
  call void @llvm.lifetime.start.p0(i64 8, ptr %3) #11
  %6 = load ptr, ptr @RelationIdCache, align 8
  %7 = load ptr, ptr %2, align 8
  %8 = getelementptr inbounds nuw %struct.RelationData, ptr %7, i32 0, i32 15
  %9 = call ptr @hash_search(ptr noundef %6, ptr noundef %8, i32 noundef 2, ptr noundef null)
  store ptr %9, ptr %3, align 8
  %10 = load ptr, ptr %3, align 8
  %11 = icmp eq ptr %10, null
  br i1 %11, label %12, label %26

12:                                               ; preds = %5
  br label %13

13:                                               ; preds = %12
  br i1 false, label %14, label %16

14:                                               ; preds = %13
  %15 = call zeroext i1 @errstart_cold(i32 noundef 19, ptr noundef null) #12
  br i1 %15, label %18, label %23

16:                                               ; preds = %13
  %17 = call zeroext i1 @errstart(i32 noundef 19, ptr noundef null)
  br i1 %17, label %18, label %23

18:                                               ; preds = %16, %14
  %19 = load ptr, ptr %2, align 8
  %20 = getelementptr inbounds nuw %struct.RelationData, ptr %19, i32 0, i32 15
  %21 = load i32, ptr %20, align 8
  %22 = call i32 (ptr, ...) @errmsg_internal(ptr noundef @.str.61, i32 noundef %21)
  call void @errfinish(ptr noundef @.str.1, i32 noundef 2518, ptr noundef @__func__.RelationClearRelation)
  br label %23

23:                                               ; preds = %18, %16, %14
  br label %24

24:                                               ; preds = %23
  br label %25

25:                                               ; preds = %24
  br label %26

26:                                               ; preds = %25, %5
  call void @llvm.lifetime.end.p0(i64 8, ptr %3) #11
  br label %27

27:                                               ; preds = %26
  %28 = load ptr, ptr %2, align 8
  call void @RelationDestroyRelation(ptr noundef %28, i1 noundef zeroext false)
  ret void
}