; Function Attrs: nounwind uwtable
define internal fastcc void @RelationClearRelation(ptr noundef initializes((34, 35)) %0) unnamed_addr #0 {
  %2 = getelementptr inbounds nuw i8, ptr %0, i64 16
  %3 = load ptr, ptr %2, align 8
  %.not.i.i = icmp eq ptr %3, null
  br i1 %.not.i.i, label %RelationCloseSmgr.exit.i, label %4

4:                                                ; preds = %1
  tail call void @smgrunpin(ptr noundef nonnull %3) #13
  %5 = load ptr, ptr %2, align 8
  tail call void @smgrclose(ptr noundef %5) #13
  store ptr null, ptr %2, align 8
  br label %RelationCloseSmgr.exit.i

RelationCloseSmgr.exit.i:                         ; preds = %4, %1
  %6 = getelementptr inbounds nuw i8, ptr %0, i64 456
  %7 = load ptr, ptr %6, align 8
  %.not.i = icmp eq ptr %7, null
  br i1 %.not.i, label %RelationInvalidateRelation.exit, label %8

8:                                                ; preds = %RelationCloseSmgr.exit.i
  tail call void @pfree(ptr noundef nonnull %7) #13
  br label %RelationInvalidateRelation.exit

RelationInvalidateRelation.exit:                  ; preds = %RelationCloseSmgr.exit.i, %8
  store ptr null, ptr %6, align 8
  %9 = getelementptr inbounds nuw i8, ptr %0, i64 34
  store i8 0, ptr %9, align 2
  %10 = load ptr, ptr @RelationIdCache, align 8
  %11 = getelementptr inbounds nuw i8, ptr %0, i64 72
  %12 = tail call ptr @hash_search(ptr noundef %10, ptr noundef nonnull %11, i32 noundef 2, ptr noundef null) #13
  %13 = icmp eq ptr %12, null
  br i1 %13, label %14, label %19

14:                                               ; preds = %RelationInvalidateRelation.exit
  %15 = tail call zeroext i1 @errstart(i32 noundef 19, ptr noundef null) #13
  br i1 %15, label %16, label %19

16:                                               ; preds = %14
  %17 = load i32, ptr %11, align 8
  %18 = tail call i32 (ptr, ...) @errmsg_internal(ptr noundef nonnull @.str.61, i32 noundef %17) #13
  tail call void @errfinish(ptr noundef nonnull @.str.1, i32 noundef 2518, ptr noundef nonnull @__func__.RelationClearRelation) #13
  br label %19

19:                                               ; preds = %14, %16, %RelationInvalidateRelation.exit
  tail call fastcc void @RelationDestroyRelation(ptr noundef nonnull %0, i1 noundef zeroext false)
  ret void
}